target datalayout = "e-m:e-p270:32:32-p271:32:32-p272:64:64-i64:64-i128:128-f80:128-n8:16:32:64-S128"
target triple = "x86_64-unknown-linux-gnu"

%"class.boost::detail::shared_count" = type { ptr }
%"class.QuantLib::BlackCalculator" = type { ptr, double, double, double, double, double, double, double, double, double, double, double, double, double, double, double, double, double, double }
%"class.boost::shared_ptr.18" = type { ptr, %"class.boost::detail::shared_count" }
%"class.QuantLib::StrikedTypePayoff" = type { %"class.QuantLib::TypePayoff.base", double }
%"class.QuantLib::TypePayoff.base" = type <{ %"class.QuantLib::Payoff", i32 }>
%"class.QuantLib::Payoff" = type { ptr }

@.str.22 = private unnamed_addr constant [8 x i8] c"px != 0\00", align 1
@.str.23 = private unnamed_addr constant [102 x i8] c"generated/home/dtcxzyw/WorkSpace/SDK/vcpkg/installed/x64-linux/include/boost/smart_ptr/shared_ptr.hpp\00", align 1
@__PRETTY_FUNCTION__._ZNK5boost10shared_ptrIN8QuantLib17StrikedTypePayoffEEptEv = private unnamed_addr constant [151 x i8] c"typename boost::detail::sp_member_access<T>::type boost::shared_ptr<QuantLib::StrikedTypePayoff>::operator->() const [T = QuantLib::StrikedTypePayoff]\00", align 1

; Function Attrs: mustprogress nounwind uwtable
define linkonce_odr noundef double @_ZNK8QuantLib17StrikedTypePayoff6strikeEv(ptr noundef nonnull align 8 dereferenceable(24) %this) #6 comdat align 2 {
entry:
  %this.addr = alloca ptr, align 8
  store ptr %this, ptr %this.addr, align 8, !tbaa !3
  %this1 = load ptr, ptr %this.addr, align 8
  %strike_ = getelementptr inbounds nuw %"class.QuantLib::StrikedTypePayoff", ptr %this1, i32 0, i32 1
  %0 = load double, ptr %strike_, align 8, !tbaa !20
  ret double %0
}

; Function Attrs: mustprogress uwtable
define linkonce_odr noundef ptr @_ZNK5boost10shared_ptrIN8QuantLib17StrikedTypePayoffEEptEv(ptr noundef nonnull align 8 dereferenceable(16) %this) #4 comdat align 2 {
entry:
  %this.addr = alloca ptr, align 8
  store ptr %this, ptr %this.addr, align 8, !tbaa !3
  %this1 = load ptr, ptr %this.addr, align 8
  %px = getelementptr inbounds nuw %"class.boost::shared_ptr.18", ptr %this1, i32 0, i32 0
  %0 = load ptr, ptr %px, align 8, !tbaa !17
  %cmp = icmp ne ptr %0, null
  %lnot = xor i1 %cmp, true
  %lnot2 = xor i1 %lnot, true
  %conv = zext i1 %lnot2 to i64
  %expval = call i64 @llvm.expect.i64(i64 %conv, i64 1)
  %tobool = icmp ne i64 %expval, 0
  br i1 %tobool, label %cond.true, label %cond.false

cond.true:                                        ; preds = %entry
  br label %cond.end

cond.false:                                       ; preds = %entry
  call void @_ZN5boost16assertion_failedEPKcS1_S1_l(ptr noundef @.str.22, ptr noundef @__PRETTY_FUNCTION__._ZNK5boost10shared_ptrIN8QuantLib17StrikedTypePayoffEEptEv, ptr noundef @.str.23, i64 noundef 784)
  br label %cond.end

cond.end:                                         ; preds = %cond.false, %cond.true
  %px3 = getelementptr inbounds nuw %"class.boost::shared_ptr.18", ptr %this1, i32 0, i32 0
  %1 = load ptr, ptr %px3, align 8, !tbaa !17
  ret ptr %1
}

; Function Attrs: mustprogress uwtable
define void @_ZN8QuantLib15BlackCalculatorC2ERKN5boost10shared_ptrINS_17StrikedTypePayoffEEEddd(ptr noundef nonnull align 8 dereferenceable(152) %this, ptr noundef nonnull align 8 dereferenceable(16) %p, double noundef %forward, double noundef %stdDev, double noundef %discount) unnamed_addr #4 align 2 {
entry:
  %this.addr = alloca ptr, align 8
  %p.addr = alloca ptr, align 8
  %forward.addr = alloca double, align 8
  %stdDev.addr = alloca double, align 8
  %discount.addr = alloca double, align 8
  store ptr %this, ptr %this.addr, align 8, !tbaa !3
  store ptr %p, ptr %p.addr, align 8, !tbaa !3
  store double %forward, ptr %forward.addr, align 8, !tbaa !9
  store double %stdDev, ptr %stdDev.addr, align 8, !tbaa !9
  store double %discount, ptr %discount.addr, align 8, !tbaa !9
  %this1 = load ptr, ptr %this.addr, align 8
  store ptr getelementptr inbounds inrange(-16, 56) ({ [9 x ptr] }, ptr @_ZTVN8QuantLib15BlackCalculatorE, i32 0, i32 0, i32 2), ptr %this1, align 8, !tbaa !7
  %strike_ = getelementptr inbounds nuw %"class.QuantLib::BlackCalculator", ptr %this1, i32 0, i32 1
  %0 = load ptr, ptr %p.addr, align 8, !tbaa !3
  %call = call noundef ptr @_ZNK5boost10shared_ptrIN8QuantLib17StrikedTypePayoffEEptEv(ptr noundef nonnull align 8 dereferenceable(16) %0)
  %call2 = call noundef double @_ZNK8QuantLib17StrikedTypePayoff6strikeEv(ptr noundef nonnull align 8 dereferenceable(24) %call)
  store double %call2, ptr %strike_, align 8, !tbaa !11
  %forward_ = getelementptr inbounds nuw %"class.QuantLib::BlackCalculator", ptr %this1, i32 0, i32 2
  %1 = load double, ptr %forward.addr, align 8, !tbaa !9
  store double %1, ptr %forward_, align 8, !tbaa !13
  %stdDev_ = getelementptr inbounds nuw %"class.QuantLib::BlackCalculator", ptr %this1, i32 0, i32 3
  %2 = load double, ptr %stdDev.addr, align 8, !tbaa !9
  store double %2, ptr %stdDev_, align 8, !tbaa !14
  %discount_ = getelementptr inbounds nuw %"class.QuantLib::BlackCalculator", ptr %this1, i32 0, i32 4
  %3 = load double, ptr %discount.addr, align 8, !tbaa !9
  store double %3, ptr %discount_, align 8, !tbaa !15
  %variance_ = getelementptr inbounds nuw %"class.QuantLib::BlackCalculator", ptr %this1, i32 0, i32 5
  %4 = load double, ptr %stdDev.addr, align 8, !tbaa !9
  %5 = load double, ptr %stdDev.addr, align 8, !tbaa !9
  %mul = fmul double %4, %5
  store double %mul, ptr %variance_, align 8, !tbaa !16
  %6 = load ptr, ptr %p.addr, align 8, !tbaa !3
  call void @_ZN8QuantLib15BlackCalculator10initializeERKN5boost10shared_ptrINS_17StrikedTypePayoffEEE(ptr noundef nonnull align 8 dereferenceable(152) %this1, ptr noundef nonnull align 8 dereferenceable(16) %6)
  ret void
}