; Function Attrs: mustprogress uwtable
define void @_ZN8QuantLib15BlackCalculatorC2ERKN5boost10shared_ptrINS_17StrikedTypePayoffEEEddd(ptr noundef nonnull align 8 dereferenceable(152) %this, ptr nocapture noundef nonnull readonly align 8 dereferenceable(16) %p, double noundef %forward, double noundef %stdDev, double noundef %discount) unnamed_addr #3 align 2 {
entry:
  store ptr getelementptr inbounds inrange(-16, 56) (i8, ptr @_ZTVN8QuantLib15BlackCalculatorE, i64 16), ptr %this, align 8, !tbaa !14
  %0 = load ptr, ptr %p, align 8, !tbaa !18
  %cmp.not.i = icmp eq ptr %0, null
  br i1 %cmp.not.i, label %cond.false.i, label %_ZNK5boost10shared_ptrIN8QuantLib17StrikedTypePayoffEEptEv.exit, !prof !20

cond.false.i:                                     ; preds = %entry
  tail call void @_ZN5boost16assertion_failedEPKcS1_S1_l(ptr noundef nonnull @.str.22, ptr noundef nonnull @__PRETTY_FUNCTION__._ZNK5boost10shared_ptrIN8QuantLib17StrikedTypePayoffEEptEv, ptr noundef nonnull @.str.23, i64 noundef 784)
  %.pre.i = load ptr, ptr %p, align 8, !tbaa !18
  br label %_ZNK5boost10shared_ptrIN8QuantLib17StrikedTypePayoffEEptEv.exit

_ZNK5boost10shared_ptrIN8QuantLib17StrikedTypePayoffEEptEv.exit: ; preds = %entry, %cond.false.i
  %1 = phi ptr [ %0, %entry ], [ %.pre.i, %cond.false.i ]
  %strike_ = getelementptr inbounds nuw i8, ptr %this, i64 8
  %strike_.i = getelementptr inbounds nuw i8, ptr %1, i64 16
  %2 = load double, ptr %strike_.i, align 8, !tbaa !21
  store double %2, ptr %strike_, align 8, !tbaa !27
  %forward_ = getelementptr inbounds nuw i8, ptr %this, i64 16
  store double %forward, ptr %forward_, align 8, !tbaa !29
  %stdDev_ = getelementptr inbounds nuw i8, ptr %this, i64 24
  store double %stdDev, ptr %stdDev_, align 8, !tbaa !30
  %discount_ = getelementptr inbounds nuw i8, ptr %this, i64 32
  store double %discount, ptr %discount_, align 8, !tbaa !31
  %variance_ = getelementptr inbounds nuw i8, ptr %this, i64 40
  %mul = fmul double %stdDev, %stdDev
  store double %mul, ptr %variance_, align 8, !tbaa !32
  tail call void @_ZN8QuantLib15BlackCalculator10initializeERKN5boost10shared_ptrINS_17StrikedTypePayoffEEE(ptr noundef nonnull align 8 dereferenceable(152) %this, ptr noundef nonnull align 8 dereferenceable(16) %p)
  ret void
}